; Function Attrs: mustprogress nofree norecurse nosync nounwind willreturn memory(read, inaccessiblemem: none) uwtable
define dso_local range(i32 1089, 1602) i32 @io_get_file_flags(ptr noundef readonly captures(none) %0) local_unnamed_addr #7 {
  %2 = getelementptr inbounds nuw i8, ptr %0, i64 720
  %3 = load i8, ptr %2, align 8
  switch i8 %3, label %5 [
    i8 1, label %7
    i8 2, label %4
  ]

4:                                                ; preds = %1
  br label %7

5:                                                ; preds = %1
  %6 = load i16, ptr getelementptr inbounds nuw (i8, ptr @slurm_conf, i64 576), align 8
  %.not = icmp eq i16 %6, 0
  %. = select i1 %.not, i32 1601, i32 1089
  br label %7

7:                                                ; preds = %5, %1, %4
  %.0 = phi i32 [ 1601, %4 ], [ 1089, %1 ], [ %., %5 ]
  ret i32 %.0
}